Certificate:
    Data:
        Version: 3 (0x2)
        Serial Number: 1 (0x1)
    Signature Algorithm: sha256WithRSAEncryption
        Issuer: C=CA, ST=ON, L=Toronto, O=Boss Insights, OU=CA, CN=Boss Insights Certification Authority
        Validity
            Not Before: Sep  7 13:05:18 2020 GMT
            Not After : Sep  5 13:05:18 2030 GMT
        Subject: C=CA, ST=ON, L=Toronto, O=Boss Insights, OU=CA, CN=Boss Insights Certification Authority
        Subject Public Key Info:
            Public Key Algorithm: rsaEncryption
                Public-Key: (2048 bit)
                Modulus:
                    00:b5:0f:bc:7e:b0:90:52:ef:f1:de:b1:6d:2e:01:
                    c9:51:f7:a2:08:ce:a7:2f:c9:a6:ae:25:bc:ff:c7:
                    83:05:e8:c4:0c:72:13:33:ad:9b:cf:56:17:0a:be:
                    d4:2c:1c:4a:6a:82:5b:f4:9b:fb:53:f0:23:21:e7:
                    1b:b7:a3:dd:31:ee:3a:e6:1b:86:a5:05:e2:3f:41:
                    74:57:a2:51:9d:42:e0:ac:66:65:36:39:5f:37:f3:
                    8a:a5:e4:fc:59:56:07:aa:4c:44:a9:8d:0e:16:d8:
                    91:52:98:fa:28:7e:3b:a9:07:6c:8d:76:e0:96:08:
                    de:f2:10:cc:3f:f6:e5:45:56:dc:8f:86:19:b5:42:
                    31:35:83:20:14:54:8b:51:74:90:7a:b7:c2:6f:15:
                    c4:f0:08:8d:6f:d2:59:a1:14:5b:5f:0e:8f:fe:43:
                    be:cf:56:32:09:a2:2d:fd:49:f2:a2:b8:64:e2:e7:
                    22:f0:a8:50:89:c6:f8:95:c6:ec:0e:74:38:24:c2:
                    12:77:83:e9:c2:b3:af:71:73:89:0e:a4:e1:25:9f:
                    65:28:ec:9f:60:88:fc:7a:f1:1e:c8:5d:76:fa:26:
                    e5:28:a7:7d:61:00:7b:c4:73:a3:08:9f:f6:37:ed:
                    e6:1b:aa:98:88:41:6d:09:26:0c:d8:80:d1:ae:1a:
                    7e:83
                Exponent: 65537 (0x10001)
        X509v3 extensions:
            X509v3 Subject Key Identifier: 
                E7:A6:3B:9F:C0:0C:6E:DE:40:43:58:1F:42:39:EE:00:E7:F3:4A:18
            X509v3 Authority Key Identifier: 
                keyid:E7:A6:3B:9F:C0:0C:6E:DE:40:43:58:1F:42:39:EE:00:E7:F3:4A:18

            X509v3 Basic Constraints: critical
                CA:TRUE
            X509v3 Key Usage: critical
                Certificate Sign, CRL Sign
    Signature Algorithm: sha256WithRSAEncryption
         39:e0:d2:c1:81:82:09:0a:40:0e:fc:9f:a5:f6:5f:13:10:6c:
         d9:83:55:c7:e2:f7:f8:8f:c7:f4:07:b1:c8:41:37:e7:5c:df:
         b3:9f:0b:c0:a4:0b:6b:cc:a7:d3:1a:23:be:ab:33:65:df:01:
         5a:00:37:c5:08:64:77:b3:8a:18:8d:68:94:5d:67:b1:4b:19:
         5b:c8:15:0f:fa:9f:af:ea:73:db:7b:c3:e6:76:6b:10:9b:53:
         e1:d7:19:0e:62:75:c7:cf:0f:1f:87:c6:40:d4:e7:85:e1:6a:
         df:50:a2:03:3f:96:d0:31:66:de:ee:9b:46:f5:18:03:8a:ae:
         66:0e:66:9e:a1:2b:cc:c3:b4:1a:89:20:3e:29:dc:b7:aa:f1:
         d5:d4:62:15:f7:b0:ac:9f:51:81:8d:b0:70:ec:65:5c:6e:20:
         b3:2c:e5:0e:dd:bd:f5:39:f6:73:1e:23:9b:74:2d:eb:4f:93:
         92:88:b1:7b:8a:d9:8e:ab:83:26:93:aa:f7:77:9a:2b:a4:98:
         f8:ca:d7:80:5f:c8:ae:57:00:db:d8:f3:d8:af:16:8d:93:33:
         f8:b8:e2:77:3e:ae:9c:08:a0:af:81:02:03:6b:6d:87:cc:08:
         89:25:b5:3b:f4:3d:00:b4:63:20:98:26:32:85:3b:3f:c0:e3:
         ed:ef:c1:52
-----BEGIN CERTIFICATE-----
MIID4jCCAsqgAwIBAgIBATANBgkqhkiG9w0BAQsFADCBgTELMAkGA1UEBhMCQ0Ex
CzAJBgNVBAgTAk9OMRAwDgYDVQQHEwdUb3JvbnRvMRYwFAYDVQQKEw1Cb3NzIElu
c2lnaHRzMQswCQYDVQQLEwJDQTEuMCwGA1UEAxMlQm9zcyBJbnNpZ2h0cyBDZXJ0
aWZpY2F0aW9uIEF1dGhvcml0eTAeFw0yMDA5MDcxMzA1MThaFw0zMDA5MDUxMzA1
MThaMIGBMQswCQYDVQQGEwJDQTELMAkGA1UECBMCT04xEDAOBgNVBAcTB1Rvcm9u
dG8xFjAUBgNVBAoTDUJvc3MgSW5zaWdodHMxCzAJBgNVBAsTAkNBMS4wLAYDVQQD
EyVCb3NzIEluc2lnaHRzIENlcnRpZmljYXRpb24gQXV0aG9yaXR5MIIBIjANBgkq
hkiG9w0BAQEFAAOCAQ8AMIIBCgKCAQEAtQ+8frCQUu/x3rFtLgHJUfeiCM6nL8mm
riW8/8eDBejEDHITM62bz1YXCr7ULBxKaoJb9Jv7U/AjIecbt6PdMe465huGpQXi
P0F0V6JRnULgrGZlNjlfN/OKpeT8WVYHqkxEqY0OFtiRUpj6KH47qQdsjXbglgje
8hDMP/blRVbcj4YZtUIxNYMgFFSLUXSQerfCbxXE8AiNb9JZoRRbXw6P/kO+z1Yy
CaIt/Unyorhk4uci8KhQicb4lcbsDnQ4JMISd4PpwrOvcXOJDqThJZ9lKOyfYIj8
evEeyF12+iblKKd9YQB7xHOjCJ/2N+3mG6qYiEFtCSYM2IDRrhp+gwIDAQABo2Mw
YTAdBgNVHQ4EFgQU56Y7n8AMbt5AQ1gfQjnuAOfzShgwHwYDVR0jBBgwFoAU56Y7
n8AMbt5AQ1gfQjnuAOfzShgwDwYDVR0TAQH/BAUwAwEB/zAOBgNVHQ8BAf8EBAMC
AQYwDQYJKoZIhvcNAQELBQADggEBADng0sGBggkKQA78n6X2XxMQbNmDVcfi9/iP
x/QHschBN+dc37OfC8CkC2vMp9MaI76rM2XfAVoAN8UIZHezihiNaJRdZ7FLGVvI
FQ/6n6/qc9t7w+Z2axCbU+HXGQ5idcfPDx+HxkDU54Xhat9QogM/ltAxZt7um0b1
GAOKrmYOZp6hK8zDtBqJID4p3Leq8dXUYhX3sKyfUYGNsHDsZVxuILMs5Q7dvfU5
9nMeI5t0LetPk5KIsXuK2Y6rgyaTqvd3miukmPjK14BfyK5XANvY89ivFo2TM/i4
4nc+rpwIoK+BAgNrbYfMCIkltTv0PQC0YyCYJjKFOz/A4+3vwVI=
-----END CERTIFICATE-----
