Certificate:
    Data:
        Version: 3 (0x2)
        Serial Number: 3 (0x3)
    Signature Algorithm: sha256WithRSAEncryption
        Issuer: C=CA, ST=ON, L=Toronto, O=Boss Insights, OU=CA, CN=Boss Insights Certification Authority
        Validity
            Not Before: Sep  7 13:15:48 2020 GMT
            Not After : Sep  7 13:15:48 2021 GMT
        Subject: C=DK, ST=Some-State, O=Internet Widgits Pty Ltd, CN=I am me
        Subject Public Key Info:
            Public Key Algorithm: rsaEncryption
                Public-Key: (2048 bit)
                Modulus:
                    00:c2:be:bc:88:b5:84:a2:d2:a1:b9:69:de:38:a2:
                    b5:61:f8:85:9b:93:f1:3c:5e:3d:fb:b7:a8:e7:7d:
                    b1:22:59:21:11:84:6e:10:46:5f:fe:ef:4d:9d:38:
                    e9:30:6b:5e:be:3b:e4:4e:70:39:92:e2:9c:c4:4b:
                    4f:6c:77:66:52:f8:43:46:42:d2:10:b1:70:e1:2a:
                    dd:92:7b:3c:76:2c:63:9f:ae:57:ee:0b:39:03:d3:
                    d7:57:8e:00:dd:86:3d:5a:93:31:10:21:a6:30:db:
                    56:b3:ef:11:09:c5:54:36:14:73:b3:d5:0c:1b:6c:
                    dc:36:c2:90:3b:34:1a:a0:b6:7d:27:af:6a:f9:f9:
                    a3:18:d1:83:f6:ab:2d:5d:4a:b4:af:88:6e:8a:13:
                    4d:8d:cc:7a:9d:f5:40:88:5e:0e:15:41:8a:6c:e0:
                    dc:aa:39:68:7a:1b:b4:62:b3:ae:15:e6:fe:cb:78:
                    38:97:4d:6f:b5:e4:5a:5b:b6:01:2f:a2:9b:33:f8:
                    da:36:b2:b0:12:d2:8a:96:37:68:3c:b5:00:13:0d:
                    55:32:7a:f7:4d:f8:06:0c:44:63:4e:31:69:a5:3d:
                    f8:89:be:e1:ff:f8:ca:5d:d1:1d:47:62:39:2c:55:
                    d1:23:9a:7c:41:e6:32:2b:e3:c0:14:16:49:7f:7c:
                    cf:71
                Exponent: 65537 (0x10001)
        X509v3 extensions:
            X509v3 Subject Key Identifier: 
                86:C5:B4:A6:D4:D9:AE:97:90:01:B7:B6:48:99:EC:4F:FF:F0:07:05
            X509v3 Authority Key Identifier: 
                keyid:E7:A6:3B:9F:C0:0C:6E:DE:40:43:58:1F:42:39:EE:00:E7:F3:4A:18

            X509v3 Key Usage: critical
                Digital Signature
            X509v3 Extended Key Usage: 
                TLS Web Server Authentication
    Signature Algorithm: sha256WithRSAEncryption
         08:67:b4:f2:e5:7e:b4:e5:dd:aa:c5:dd:ce:be:90:93:85:d1:
         90:ea:65:7d:0c:06:74:90:a2:15:22:1e:9e:3c:1d:67:ef:ac:
         48:09:7e:57:ab:b0:64:82:5e:b6:d9:4b:45:49:dd:55:1e:9b:
         38:c7:d5:63:86:dc:8b:f2:98:1e:a6:de:fa:06:8f:a7:e6:14:
         47:f1:bd:03:e2:51:17:44:c1:1b:b8:12:88:75:22:c3:d9:8a:
         8d:e9:5c:36:69:7e:3f:00:6b:2b:65:ce:04:c2:0a:7a:d9:5d:
         40:3b:5d:11:01:93:3c:7c:36:4e:1c:19:6a:41:64:78:ec:b2:
         45:1a:ec:d7:08:99:df:85:8c:be:99:6d:b1:01:4c:56:eb:75:
         57:f3:b8:47:92:f7:42:80:14:ea:1b:20:a8:73:99:9f:95:fe:
         a7:96:1a:8c:42:39:06:f1:1e:10:03:a0:10:c3:f2:c3:28:b9:
         75:5e:cd:dd:83:3c:cf:44:85:6b:2f:52:cd:ec:2f:a7:f3:f4:
         9a:3a:22:2d:37:04:91:b4:5f:d6:f2:4b:19:7f:0e:93:f8:ba:
         28:61:cf:c7:59:5f:55:b3:35:47:f9:fc:a7:e0:e9:73:78:4e:
         cf:55:e6:ec:d4:16:fe:4f:3a:10:06:82:df:57:7f:cb:2b:b1:
         99:e4:35:22
-----BEGIN CERTIFICATE-----
MIIDuzCCAqOgAwIBAgIBAzANBgkqhkiG9w0BAQsFADCBgTELMAkGA1UEBhMCQ0Ex
CzAJBgNVBAgTAk9OMRAwDgYDVQQHEwdUb3JvbnRvMRYwFAYDVQQKEw1Cb3NzIElu
c2lnaHRzMQswCQYDVQQLEwJDQTEuMCwGA1UEAxMlQm9zcyBJbnNpZ2h0cyBDZXJ0
aWZpY2F0aW9uIEF1dGhvcml0eTAeFw0yMDA5MDcxMzE1NDhaFw0yMTA5MDcxMzE1
NDhaMFcxCzAJBgNVBAYTAkRLMRMwEQYDVQQIDApTb21lLVN0YXRlMSEwHwYDVQQK
DBhJbnRlcm5ldCBXaWRnaXRzIFB0eSBMdGQxEDAOBgNVBAMMB0kgYW0gbWUwggEi
MA0GCSqGSIb3DQEBAQUAA4IBDwAwggEKAoIBAQDCvryItYSi0qG5ad44orVh+IWb
k/E8Xj37t6jnfbEiWSERhG4QRl/+702dOOkwa16+O+ROcDmS4pzES09sd2ZS+ENG
QtIQsXDhKt2Sezx2LGOfrlfuCzkD09dXjgDdhj1akzEQIaYw21az7xEJxVQ2FHOz
1QwbbNw2wpA7NBqgtn0nr2r5+aMY0YP2qy1dSrSviG6KE02NzHqd9UCIXg4VQYps
4NyqOWh6G7Ris64V5v7LeDiXTW+15FpbtgEvopsz+No2srAS0oqWN2g8tQATDVUy
evdN+AYMRGNOMWmlPfiJvuH/+Mpd0R1HYjksVdEjmnxB5jIr48AUFkl/fM9xAgMB
AAGjZzBlMB0GA1UdDgQWBBSGxbSm1Nmul5ABt7ZImexP//AHBTAfBgNVHSMEGDAW
gBTnpjufwAxu3kBDWB9COe4A5/NKGDAOBgNVHQ8BAf8EBAMCB4AwEwYDVR0lBAww
CgYIKwYBBQUHAwEwDQYJKoZIhvcNAQELBQADggEBAAhntPLlfrTl3arF3c6+kJOF
0ZDqZX0MBnSQohUiHp48HWfvrEgJflersGSCXrbZS0VJ3VUemzjH1WOG3IvymB6m
3voGj6fmFEfxvQPiURdEwRu4Eoh1IsPZio3pXDZpfj8AaytlzgTCCnrZXUA7XREB
kzx8Nk4cGWpBZHjsskUa7NcImd+FjL6ZbbEBTFbrdVfzuEeS90KAFOobIKhzmZ+V
/qeWGoxCOQbxHhADoBDD8sMouXVezd2DPM9EhWsvUs3sL6fz9Jo6Ii03BJG0X9by
Sxl/DpP4uihhz8dZX1WzNUf5/Kfg6XN4Ts9V5uzUFv5POhAGgt9Xf8srsZnkNSI=
-----END CERTIFICATE-----
